; Function Attrs: mustprogress nounwind uwtable
define void @_ZN7rocksdb28IteratorTraceExecutionResultD2Ev(ptr noundef nonnull align 8 dereferenceable(248) initializes((0, 8), (56, 72), (152, 168)) %0) unnamed_addr #2 align 2 personality ptr @__gxx_personality_v0 {
  store ptr getelementptr inbounds nuw inrange(-16, 80) (i8, ptr @_ZTVN7rocksdb28IteratorTraceExecutionResultE, i64 16), ptr %0, align 8, !tbaa !4
  %2 = getelementptr inbounds nuw i8, ptr %0, i64 56
  store ptr @.str, ptr %2, align 8, !tbaa !69
  %3 = getelementptr inbounds nuw i8, ptr %0, i64 64
  store i64 0, ptr %3, align 8, !tbaa !70
  %4 = getelementptr inbounds nuw i8, ptr %0, i64 152
  store ptr @.str, ptr %4, align 8, !tbaa !69
  %5 = getelementptr inbounds nuw i8, ptr %0, i64 160
  store i64 0, ptr %5, align 8, !tbaa !70
  %6 = getelementptr inbounds nuw i8, ptr %0, i64 200
  %7 = load ptr, ptr %6, align 8, !tbaa !45
  %8 = getelementptr inbounds nuw i8, ptr %0, i64 216
  %9 = icmp eq ptr %7, %8
  br i1 %9, label %_ZNKSt7__cxx1112basic_stringIcSt11char_traitsIcESaIcEE11_M_is_localEv.exit.thread.i.i.i, label %_ZNKSt7__cxx1112basic_stringIcSt11char_traitsIcESaIcEE11_M_is_localEv.exit.i.i.i

_ZNKSt7__cxx1112basic_stringIcSt11char_traitsIcESaIcEE11_M_is_localEv.exit.thread.i.i.i: ; preds = %1
  %10 = getelementptr inbounds nuw i8, ptr %0, i64 208
  %11 = load i64, ptr %10, align 8, !tbaa !47
  %12 = icmp ult i64 %11, 16
  tail call void @llvm.assume(i1 %12)
  br label %_ZN7rocksdb13PinnableSliceD2Ev.exit

_ZNKSt7__cxx1112basic_stringIcSt11char_traitsIcESaIcEE11_M_is_localEv.exit.i.i.i: ; preds = %1
  %13 = load i64, ptr %8, align 8, !tbaa !40
  %14 = add i64 %13, 1
  tail call void @_ZdlPvm(ptr noundef %7, i64 noundef %14) #15
  br label %_ZN7rocksdb13PinnableSliceD2Ev.exit

_ZN7rocksdb13PinnableSliceD2Ev.exit:              ; preds = %_ZNKSt7__cxx1112basic_stringIcSt11char_traitsIcESaIcEE11_M_is_localEv.exit.thread.i.i.i, %_ZNKSt7__cxx1112basic_stringIcSt11char_traitsIcESaIcEE11_M_is_localEv.exit.i.i.i
  %15 = getelementptr inbounds nuw i8, ptr %0, i64 168
  tail call void @_ZN7rocksdb9CleanableD2Ev(ptr noundef nonnull align 8 dereferenceable(32) %15) #16
  %16 = getelementptr inbounds nuw i8, ptr %0, i64 104
  %17 = load ptr, ptr %16, align 8, !tbaa !45
  %18 = getelementptr inbounds nuw i8, ptr %0, i64 120
  %19 = icmp eq ptr %17, %18
  br i1 %19, label %_ZNKSt7__cxx1112basic_stringIcSt11char_traitsIcESaIcEE11_M_is_localEv.exit.thread.i.i.i2, label %_ZNKSt7__cxx1112basic_stringIcSt11char_traitsIcESaIcEE11_M_is_localEv.exit.i.i.i1

_ZNKSt7__cxx1112basic_stringIcSt11char_traitsIcESaIcEE11_M_is_localEv.exit.thread.i.i.i2: ; preds = %_ZN7rocksdb13PinnableSliceD2Ev.exit
  %20 = getelementptr inbounds nuw i8, ptr %0, i64 112
  %21 = load i64, ptr %20, align 8, !tbaa !47
  %22 = icmp ult i64 %21, 16
  tail call void @llvm.assume(i1 %22)
  br label %_ZN7rocksdb13PinnableSliceD2Ev.exit3

_ZNKSt7__cxx1112basic_stringIcSt11char_traitsIcESaIcEE11_M_is_localEv.exit.i.i.i1: ; preds = %_ZN7rocksdb13PinnableSliceD2Ev.exit
  %23 = load i64, ptr %18, align 8, !tbaa !40
  %24 = add i64 %23, 1
  tail call void @_ZdlPvm(ptr noundef %17, i64 noundef %24) #15
  br label %_ZN7rocksdb13PinnableSliceD2Ev.exit3

_ZN7rocksdb13PinnableSliceD2Ev.exit3:             ; preds = %_ZNKSt7__cxx1112basic_stringIcSt11char_traitsIcESaIcEE11_M_is_localEv.exit.thread.i.i.i2, %_ZNKSt7__cxx1112basic_stringIcSt11char_traitsIcESaIcEE11_M_is_localEv.exit.i.i.i1
  %25 = getelementptr inbounds nuw i8, ptr %0, i64 72
  tail call void @_ZN7rocksdb9CleanableD2Ev(ptr noundef nonnull align 8 dereferenceable(32) %25) #16
  %26 = getelementptr inbounds nuw i8, ptr %0, i64 48
  %27 = load ptr, ptr %26, align 8, !tbaa !42
  %.not.i.i = icmp eq ptr %27, null
  br i1 %.not.i.i, label %_ZN7rocksdb6StatusD2Ev.exit, label %_ZNKSt14default_deleteIA_KcEclIS0_EENSt9enable_ifIXsr14is_convertibleIPA_T_PS1_EE5valueEvE4typeEPS5_.exit.i.i

_ZNKSt14default_deleteIA_KcEclIS0_EENSt9enable_ifIXsr14is_convertibleIPA_T_PS1_EE5valueEvE4typeEPS5_.exit.i.i: ; preds = %_ZN7rocksdb13PinnableSliceD2Ev.exit3
  tail call void @_ZdaPv(ptr noundef nonnull %27) #15
  br label %_ZN7rocksdb6StatusD2Ev.exit

_ZN7rocksdb6StatusD2Ev.exit:                      ; preds = %_ZN7rocksdb13PinnableSliceD2Ev.exit3, %_ZNKSt14default_deleteIA_KcEclIS0_EENSt9enable_ifIXsr14is_convertibleIPA_T_PS1_EE5valueEvE4typeEPS5_.exit.i.i
  store ptr null, ptr %26, align 8, !tbaa !42
  ret void
}